target datalayout = "e-m:e-p270:32:32-p271:32:32-p272:64:64-i64:64-i128:128-f80:128-n8:16:32:64-S128"
target triple = "x86_64-pc-linux-gnu"

%struct.Abc_Frame_t_ = type { ptr, ptr, ptr, ptr, ptr, ptr, ptr, ptr, ptr, ptr, i32, i32, i32, i32, i32, ptr, float, float, i32, i32, ptr, ptr, ptr, double, double, ptr, ptr, ptr, ptr, ptr, ptr, ptr, ptr, ptr, ptr, ptr, ptr, float, ptr, i32, ptr, ptr, ptr, ptr, ptr, i32, i32, i32, i32, i32, i32, ptr, ptr, ptr, ptr, ptr, ptr, i32, i32, ptr, ptr, ptr, ptr, ptr, ptr, ptr, ptr, ptr, ptr, ptr, ptr, ptr, ptr, ptr, ptr, ptr, ptr, ptr, ptr, ptr, ptr, ptr, ptr, ptr, ptr, ptr, ptr, ptr, ptr }

; Function Attrs: nounwind uwtable
define ptr @Abc_FrameReadSave2() #0 {
  %1 = alloca ptr, align 8
  call void @llvm.lifetime.start.p0(i64 8, ptr %1) #10
  %2 = call ptr @Abc_FrameGetGlobalFrame()
  %3 = getelementptr inbounds nuw %struct.Abc_Frame_t_, ptr %2, i32 0, i32 64
  %4 = load ptr, ptr %3, align 8, !tbaa !95
  store ptr %4, ptr %1, align 8, !tbaa !55
  %5 = call ptr @Abc_FrameGetGlobalFrame()
  %6 = getelementptr inbounds nuw %struct.Abc_Frame_t_, ptr %5, i32 0, i32 64
  store ptr null, ptr %6, align 8, !tbaa !95
  %7 = load ptr, ptr %1, align 8, !tbaa !55
  call void @llvm.lifetime.end.p0(i64 8, ptr %1) #10
  ret ptr %7
}