; Function Attrs: nounwind uwtable
define ptr @Abc_FrameReadSave2() local_unnamed_addr #1 {
  %1 = tail call ptr @Abc_FrameGetGlobalFrame()
  %2 = getelementptr inbounds nuw i8, ptr %1, i64 448
  %3 = load ptr, ptr %2, align 8, !tbaa !90
  %4 = tail call ptr @Abc_FrameGetGlobalFrame()
  %5 = getelementptr inbounds nuw i8, ptr %4, i64 448
  store ptr null, ptr %5, align 8, !tbaa !90
  ret ptr %3
}